target datalayout = "e-m:e-p270:32:32-p271:32:32-p272:64:64-i64:64-i128:128-f80:128-n8:16:32:64-S128"
target triple = "x86_64-pc-linux-gnu"

%struct.sockaddr_in = type { i16, i16, %struct.in_addr, [8 x i8] }
%struct.in_addr = type { i32 }

@.str.40 = private unnamed_addr constant [10 x i8] c"127.0.0.1\00", align 1

; Function Attrs: nounwind uwtable
define dso_local i32 @create_test_sockets(ptr noundef %0, ptr noundef %1, i32 noundef %2, ptr noundef %3) #0 {
  %5 = alloca i32, align 4
  %6 = alloca ptr, align 8
  %7 = alloca ptr, align 8
  %8 = alloca i32, align 4
  %9 = alloca ptr, align 8
  %10 = alloca %struct.sockaddr_in, align 4
  %11 = alloca ptr, align 8
  %12 = alloca i32, align 4
  %13 = alloca i32, align 4
  %14 = alloca i32, align 4
  %15 = alloca i32, align 4
  %16 = alloca i32, align 4
  %17 = alloca i32, align 4
  %18 = alloca i32, align 4
  store ptr %0, ptr %6, align 8, !tbaa !67
  store ptr %1, ptr %7, align 8, !tbaa !67
  store i32 %2, ptr %8, align 4, !tbaa !13
  store ptr %3, ptr %9, align 8, !tbaa !69
  call void @llvm.lifetime.start.p0(i64 16, ptr %10) #10
  call void @llvm.lifetime.start.p0(i64 8, ptr %11) #10
  store ptr @.str.40, ptr %11, align 8, !tbaa !11
  call void @llvm.lifetime.start.p0(i64 4, ptr %12) #10
  store i32 0, ptr %12, align 4, !tbaa !13
  call void @llvm.lifetime.start.p0(i64 4, ptr %13) #10
  store i32 0, ptr %13, align 4, !tbaa !13
  call void @llvm.lifetime.start.p0(i64 4, ptr %14) #10
  store i32 16, ptr %14, align 4, !tbaa !13
  call void @llvm.lifetime.start.p0(i64 4, ptr %15) #10
  store i32 -1, ptr %15, align 4, !tbaa !13
  call void @llvm.lifetime.start.p0(i64 4, ptr %16) #10
  store i32 -1, ptr %16, align 4, !tbaa !13
  call void @llvm.lifetime.start.p0(i64 4, ptr %17) #10
  store i32 -1, ptr %17, align 4, !tbaa !13
  call void @llvm.memset.p0.i64(ptr align 4 %10, i8 0, i64 16, i1 false)
  %19 = getelementptr inbounds nuw %struct.sockaddr_in, ptr %10, i32 0, i32 0
  store i16 2, ptr %19, align 4, !tbaa !71
  %20 = load ptr, ptr %11, align 8, !tbaa !11
  %21 = call i32 @inet_addr(ptr noundef %20) #10
  %22 = getelementptr inbounds nuw %struct.sockaddr_in, ptr %10, i32 0, i32 2
  %23 = getelementptr inbounds nuw %struct.in_addr, ptr %22, i32 0, i32 0
  store i32 %21, ptr %23, align 4, !tbaa !74
  %24 = load i32, ptr %8, align 4, !tbaa !13
  %25 = load i32, ptr %8, align 4, !tbaa !13
  %26 = icmp eq i32 %25, 1
  %27 = select i1 %26, i32 6, i32 17
  %28 = call i32 @BIO_socket(i32 noundef 2, i32 noundef %24, i32 noundef %27, i32 noundef 0)
  store i32 %28, ptr %15, align 4, !tbaa !13
  %29 = load i32, ptr %15, align 4, !tbaa !13
  %30 = icmp eq i32 %29, -1
  br i1 %30, label %31, label %32

31:                                               ; preds = %4
  store i32 0, ptr %5, align 4
  store i32 1, ptr %18, align 4
  br label %148

32:                                               ; preds = %4
  %33 = load i32, ptr %15, align 4, !tbaa !13
  %34 = call i32 @bind(i32 noundef %33, ptr noundef %10, i32 noundef 16) #10
  %35 = icmp slt i32 %34, 0
  br i1 %35, label %36, label %37

36:                                               ; preds = %32
  br label %127

37:                                               ; preds = %32
  %38 = load i32, ptr %15, align 4, !tbaa !13
  %39 = call i32 @getsockname(i32 noundef %38, ptr noundef %10, ptr noundef %14) #10
  %40 = icmp slt i32 %39, 0
  br i1 %40, label %41, label %42

41:                                               ; preds = %37
  br label %127

42:                                               ; preds = %37
  %43 = load ptr, ptr %9, align 8, !tbaa !69
  %44 = icmp ne ptr %43, null
  br i1 %44, label %45, label %56

45:                                               ; preds = %42
  %46 = load ptr, ptr %9, align 8, !tbaa !69
  %47 = getelementptr inbounds nuw %struct.sockaddr_in, ptr %10, i32 0, i32 0
  %48 = load i16, ptr %47, align 4, !tbaa !71
  %49 = zext i16 %48 to i32
  %50 = getelementptr inbounds nuw %struct.sockaddr_in, ptr %10, i32 0, i32 2
  %51 = getelementptr inbounds nuw %struct.sockaddr_in, ptr %10, i32 0, i32 1
  %52 = load i16, ptr %51, align 2, !tbaa !75
  %53 = call i32 @BIO_ADDR_rawmake(ptr noundef %46, i32 noundef %49, ptr noundef %50, i64 noundef 4, i16 noundef zeroext %52)
  %54 = icmp ne i32 %53, 0
  br i1 %54, label %56, label %55

55:                                               ; preds = %45
  br label %127

56:                                               ; preds = %45, %42
  %57 = load i32, ptr %8, align 4, !tbaa !13
  %58 = icmp eq i32 %57, 1
  br i1 %58, label %59, label %64

59:                                               ; preds = %56
  %60 = load i32, ptr %15, align 4, !tbaa !13
  %61 = call i32 @listen(i32 noundef %60, i32 noundef 1) #10
  %62 = icmp slt i32 %61, 0
  br i1 %62, label %63, label %64

63:                                               ; preds = %59
  br label %127

64:                                               ; preds = %59, %56
  %65 = load i32, ptr %8, align 4, !tbaa !13
  %66 = load i32, ptr %8, align 4, !tbaa !13
  %67 = icmp eq i32 %66, 1
  %68 = select i1 %67, i32 6, i32 17
  %69 = call i32 @BIO_socket(i32 noundef 2, i32 noundef %65, i32 noundef %68, i32 noundef 0)
  store i32 %69, ptr %16, align 4, !tbaa !13
  %70 = load i32, ptr %16, align 4, !tbaa !13
  %71 = icmp eq i32 %70, -1
  br i1 %71, label %72, label %73

72:                                               ; preds = %64
  br label %127

73:                                               ; preds = %64
  %74 = load i32, ptr %15, align 4, !tbaa !13
  %75 = call i32 @BIO_socket_nbio(i32 noundef %74, i32 noundef 1)
  %76 = icmp ne i32 %75, 0
  br i1 %76, label %78, label %77

77:                                               ; preds = %73
  br label %127

78:                                               ; preds = %73
  %79 = load i32, ptr %8, align 4, !tbaa !13
  %80 = icmp eq i32 %79, 2
  br i1 %80, label %81, label %83

81:                                               ; preds = %78
  store i32 1, ptr %12, align 4, !tbaa !13
  %82 = load i32, ptr %15, align 4, !tbaa !13
  store i32 %82, ptr %17, align 4, !tbaa !13
  store i32 -1, ptr %15, align 4, !tbaa !13
  br label %83

83:                                               ; preds = %81, %78
  br label %84

84:                                               ; preds = %112, %83
  %85 = load i32, ptr %17, align 4, !tbaa !13
  %86 = icmp eq i32 %85, -1
  br i1 %86, label %91, label %87

87:                                               ; preds = %84
  %88 = load i32, ptr %12, align 4, !tbaa !13
  %89 = icmp ne i32 %88, 0
  %90 = xor i1 %89, true
  br label %91

91:                                               ; preds = %87, %84
  %92 = phi i1 [ true, %84 ], [ %90, %87 ]
  br i1 %92, label %93, label %113

93:                                               ; preds = %91
  %94 = load i32, ptr %15, align 4, !tbaa !13
  %95 = call i32 @accept(i32 noundef %94, ptr noundef null, ptr noundef null)
  store i32 %95, ptr %17, align 4, !tbaa !13
  %96 = load i32, ptr %17, align 4, !tbaa !13
  %97 = icmp eq i32 %96, -1
  br i1 %97, label %98, label %103

98:                                               ; preds = %93
  %99 = call ptr @__errno_location() #12
  %100 = load i32, ptr %99, align 4, !tbaa !13
  %101 = icmp ne i32 %100, 11
  br i1 %101, label %102, label %103

102:                                              ; preds = %98
  br label %127

103:                                              ; preds = %98, %93
  %104 = load i32, ptr %12, align 4, !tbaa !13
  %105 = icmp ne i32 %104, 0
  br i1 %105, label %111, label %106

106:                                              ; preds = %103
  %107 = load i32, ptr %16, align 4, !tbaa !13
  %108 = call i32 @connect(i32 noundef %107, ptr noundef %10, i32 noundef 16)
  %109 = icmp slt i32 %108, 0
  br i1 %109, label %110, label %111

110:                                              ; preds = %106
  br label %127

111:                                              ; preds = %106, %103
  store i32 1, ptr %12, align 4, !tbaa !13
  br label %112

112:                                              ; preds = %111
  br label %84, !llvm.loop !76

113:                                              ; preds = %91
  %114 = load i32, ptr %16, align 4, !tbaa !13
  %115 = call i32 @BIO_socket_nbio(i32 noundef %114, i32 noundef 1)
  %116 = icmp ne i32 %115, 0
  br i1 %116, label %117, label %121

117:                                              ; preds = %113
  %118 = load i32, ptr %17, align 4, !tbaa !13
  %119 = call i32 @BIO_socket_nbio(i32 noundef %118, i32 noundef 1)
  %120 = icmp ne i32 %119, 0
  br i1 %120, label %122, label %121

121:                                              ; preds = %117, %113
  br label %127

122:                                              ; preds = %117
  store i32 1, ptr %13, align 4, !tbaa !13
  %123 = load i32, ptr %16, align 4, !tbaa !13
  %124 = load ptr, ptr %6, align 8, !tbaa !67
  store i32 %123, ptr %124, align 4, !tbaa !13
  %125 = load i32, ptr %17, align 4, !tbaa !13
  %126 = load ptr, ptr %7, align 8, !tbaa !67
  store i32 %125, ptr %126, align 4, !tbaa !13
  br label %140

127:                                              ; preds = %121, %110, %102, %77, %72, %63, %55, %41, %36
  %128 = load i32, ptr %16, align 4, !tbaa !13
  %129 = icmp ne i32 %128, -1
  br i1 %129, label %130, label %133

130:                                              ; preds = %127
  %131 = load i32, ptr %16, align 4, !tbaa !13
  %132 = call i32 @close(i32 noundef %131)
  br label %133

133:                                              ; preds = %130, %127
  %134 = load i32, ptr %17, align 4, !tbaa !13
  %135 = icmp ne i32 %134, -1
  br i1 %135, label %136, label %139

136:                                              ; preds = %133
  %137 = load i32, ptr %17, align 4, !tbaa !13
  %138 = call i32 @close(i32 noundef %137)
  br label %139

139:                                              ; preds = %136, %133
  br label %140

140:                                              ; preds = %139, %122
  %141 = load i32, ptr %15, align 4, !tbaa !13
  %142 = icmp ne i32 %141, -1
  br i1 %142, label %143, label %146

143:                                              ; preds = %140
  %144 = load i32, ptr %15, align 4, !tbaa !13
  %145 = call i32 @close(i32 noundef %144)
  br label %146

146:                                              ; preds = %143, %140
  %147 = load i32, ptr %13, align 4, !tbaa !13
  store i32 %147, ptr %5, align 4
  store i32 1, ptr %18, align 4
  br label %148

148:                                              ; preds = %146, %31
  call void @llvm.lifetime.end.p0(i64 4, ptr %17) #10
  call void @llvm.lifetime.end.p0(i64 4, ptr %16) #10
  call void @llvm.lifetime.end.p0(i64 4, ptr %15) #10
  call void @llvm.lifetime.end.p0(i64 4, ptr %14) #10
  call void @llvm.lifetime.end.p0(i64 4, ptr %13) #10
  call void @llvm.lifetime.end.p0(i64 4, ptr %12) #10
  call void @llvm.lifetime.end.p0(i64 8, ptr %11) #10
  call void @llvm.lifetime.end.p0(i64 16, ptr %10) #10
  %149 = load i32, ptr %5, align 4
  ret i32 %149
}