; Function Attrs: nounwind uwtable
define dso_local range(i32 0, 2) i32 @create_test_sockets(ptr noundef writeonly captures(none) %0, ptr noundef writeonly captures(none) %1, i32 noundef %2, ptr noundef %3) local_unnamed_addr #0 {
  %5 = alloca %struct.sockaddr_in, align 4
  %6 = alloca i32, align 4
  call void @llvm.lifetime.start.p0(i64 16, ptr nonnull %5) #14
  call void @llvm.lifetime.start.p0(i64 4, ptr nonnull %6) #14
  store i32 16, ptr %6, align 4, !tbaa !45
  call void @llvm.memset.p0.i64(ptr noundef nonnull align 4 dereferenceable(16) %5, i8 0, i64 16, i1 false)
  store i16 2, ptr %5, align 4, !tbaa !55
  %7 = tail call i32 @inet_addr(ptr noundef nonnull @.str.40) #14
  %8 = getelementptr inbounds nuw i8, ptr %5, i64 4
  store i32 %7, ptr %8, align 4, !tbaa !58
  %9 = icmp eq i32 %2, 1
  %10 = select i1 %9, i32 6, i32 17
  %11 = tail call i32 @BIO_socket(i32 noundef 2, i32 noundef %2, i32 noundef %10, i32 noundef 0) #14
  %12 = icmp eq i32 %11, -1
  br i1 %12, label %56, label %13

13:                                               ; preds = %4
  %14 = call i32 @bind(i32 noundef %11, ptr noundef nonnull %5, i32 noundef 16) #14
  %15 = icmp slt i32 %14, 0
  br i1 %15, label %.thread76, label %16

16:                                               ; preds = %13
  %17 = call i32 @getsockname(i32 noundef %11, ptr noundef nonnull %5, ptr noundef nonnull %6) #14
  %18 = icmp slt i32 %17, 0
  br i1 %18, label %.thread76, label %19

19:                                               ; preds = %16
  %.not = icmp eq ptr %3, null
  br i1 %.not, label %26, label %20

20:                                               ; preds = %19
  %21 = load i16, ptr %5, align 4, !tbaa !55
  %22 = zext i16 %21 to i32
  %23 = getelementptr inbounds nuw i8, ptr %5, i64 2
  %24 = load i16, ptr %23, align 2, !tbaa !59
  %25 = call i32 @BIO_ADDR_rawmake(ptr noundef nonnull %3, i32 noundef %22, ptr noundef nonnull %8, i64 noundef 4, i16 noundef zeroext %24) #14
  %.not48 = icmp eq i32 %25, 0
  br i1 %.not48, label %.thread76, label %26

26:                                               ; preds = %20, %19
  br i1 %9, label %27, label %30

27:                                               ; preds = %26
  %28 = call i32 @listen(i32 noundef %11, i32 noundef 1) #14
  %29 = icmp slt i32 %28, 0
  br i1 %29, label %.thread76, label %30

30:                                               ; preds = %27, %26
  %31 = call i32 @BIO_socket(i32 noundef 2, i32 noundef %2, i32 noundef %10, i32 noundef 0) #14
  %32 = icmp eq i32 %31, -1
  br i1 %32, label %.thread76, label %33

33:                                               ; preds = %30
  %34 = call i32 @BIO_socket_nbio(i32 noundef %11, i32 noundef 1) #14
  %.not49 = icmp eq i32 %34, 0
  br i1 %.not49, label %.thread64.thread, label %35

35:                                               ; preds = %33
  %.not84 = icmp eq i32 %2, 2
  %spec.select = select i1 %.not84, i32 -1, i32 %11
  br i1 %.not84, label %._crit_edge, label %.lr.ph

.lr.ph:                                           ; preds = %35, %45
  %.14183 = phi i1 [ false, %45 ], [ true, %35 ]
  %36 = call i32 @accept(i32 noundef %spec.select, ptr noundef null, ptr noundef null) #14
  %37 = icmp eq i32 %36, -1
  br i1 %37, label %38, label %41

38:                                               ; preds = %.lr.ph
  %39 = tail call ptr @__errno_location() #16
  %40 = load i32, ptr %39, align 4, !tbaa !45
  %.not53 = icmp eq i32 %40, 11
  br i1 %.not53, label %41, label %.thread64.thread

41:                                               ; preds = %38, %.lr.ph
  br i1 %.14183, label %42, label %45

42:                                               ; preds = %41
  %43 = call i32 @connect(i32 noundef %31, ptr noundef nonnull %5, i32 noundef 16) #14
  %44 = icmp slt i32 %43, 0
  br i1 %44, label %.thread64, label %45

45:                                               ; preds = %42, %41
  br i1 %37, label %.lr.ph, label %._crit_edge, !llvm.loop !60

._crit_edge:                                      ; preds = %45, %35
  %.2.lcssa = phi i32 [ %11, %35 ], [ %36, %45 ]
  %46 = call i32 @BIO_socket_nbio(i32 noundef %31, i32 noundef 1) #14
  %.not51 = icmp eq i32 %46, 0
  br i1 %.not51, label %.thread64, label %47

47:                                               ; preds = %._crit_edge
  %48 = call i32 @BIO_socket_nbio(i32 noundef %.2.lcssa, i32 noundef 1) #14
  %.not52 = icmp eq i32 %48, 0
  br i1 %.not52, label %.thread64, label %49

49:                                               ; preds = %47
  store i32 %31, ptr %0, align 4, !tbaa !45
  store i32 %.2.lcssa, ptr %1, align 4, !tbaa !45
  br label %54

.thread64.thread:                                 ; preds = %38, %33
  %.03669.ph = phi i32 [ %11, %33 ], [ %spec.select, %38 ]
  %50 = call i32 @close(i32 noundef %31) #14
  br label %54

.thread64:                                        ; preds = %42, %47, %._crit_edge
  %.071 = phi i32 [ %.2.lcssa, %47 ], [ %.2.lcssa, %._crit_edge ], [ %36, %42 ]
  %51 = call i32 @close(i32 noundef %31) #14
  %.not55 = icmp eq i32 %.071, -1
  br i1 %.not55, label %54, label %52

52:                                               ; preds = %.thread64
  %53 = call i32 @close(i32 noundef %.071) #14
  br label %54

54:                                               ; preds = %.thread64.thread, %.thread64, %52, %49
  %.039 = phi i32 [ 0, %52 ], [ 0, %.thread64 ], [ 1, %49 ], [ 0, %.thread64.thread ]
  %.238 = phi i32 [ %spec.select, %52 ], [ %spec.select, %.thread64 ], [ %spec.select, %49 ], [ %.03669.ph, %.thread64.thread ]
  %.not56 = icmp eq i32 %.238, -1
  br i1 %.not56, label %56, label %.thread76

.thread76:                                        ; preds = %20, %30, %27, %16, %13, %54
  %.23881 = phi i32 [ %.238, %54 ], [ %11, %13 ], [ %11, %16 ], [ %11, %27 ], [ %11, %30 ], [ %11, %20 ]
  %.03980 = phi i32 [ %.039, %54 ], [ 0, %13 ], [ 0, %16 ], [ 0, %27 ], [ 0, %30 ], [ 0, %20 ]
  %55 = call i32 @close(i32 noundef %.23881) #14
  br label %56

56:                                               ; preds = %54, %.thread76, %4
  %.042 = phi i32 [ 0, %4 ], [ %.03980, %.thread76 ], [ %.039, %54 ]
  call void @llvm.lifetime.end.p0(i64 4, ptr nonnull %6) #14
  call void @llvm.lifetime.end.p0(i64 16, ptr nonnull %5) #14
  ret i32 %.042
}